(lp0
V1206052308230106268
p1
aV1318569643132061208
p2
aV1139209264051022899
p3
aV1291578499118709999
p4
aV1185599330939596238
p5
aV1135894907145711096
p6
aV1150155116550581324
p7
aV1337892569337613469
p8
aV1335126055752825517
p9
aV1334490994900509271
p10
aV1334490037215248371
p11
aV1324802447067300078
p12
aV1324799829133521091
p13
aV1324798957121124728
p14
aV1324343839418461016
p15
aV1324341326384227435
p16
aV1324106116065513327
p17
aV1323252042784833788
p18
aV1323248978736949772
p19
aV1322840065948470279
p20
aV1322724234035876728
p21
aV1322718191654447716
p22
aV1322174560078022143
p23
aV1322168347290342115
p24
aV1320627334566416358
p25
aV1319924375734070463
p26
aV1319807764310009851
p27
aV1319319820860354643
p28
aV1313756516469293198
p29
aV1309628974439079949
p30
aV1309627174906535716
p31
aV1309505640242278248
p32
aV1297112513586039643
p33
aV1297111073798910364
p34
aV1290613978615432269
p35
aV1285677443558297668
p36
aV1261814805305106216
p37
aV1261757041972112979
p38
aV1258667214631477133
p39
aV1255834056199287326
p40
aV1254384930709446408
p41
aV1252910713234025924
p42
aV1251479399595290723
p43
aV1251446301855869965
p44
aV1251168221680770232
p45
aV1251162982953131047
p46
aV1250002261464718364
p47
aV1247829014925156276
p48
aV1236286778207923609
p49
aV1235137200490310787
p50
aV1234810039199886435
p51
aV1234277471215971412
p52
aV1231587336636624437
p53
aV1230000918323835203
p54
aV1229920758840996702
p55
aV1227833280348843322
p56
aV1226084999734258804
p57
aV1225797644662107591
p58
aV1224685306961751930
p59
aV1224345664781577749
p60
aV1224344564187819510
p61
aV1221026141097717498
p62
aV1218404085449387617
p63
aV1216049352189439235
p64
aV1215326407171271820
p65
aV1213775958035164975
p66
aV1213774070589976317
p67
aV1213435625103453190
p68
aV1211058110330334427
p69
aV1210366250448350734
p70
aV1206595797854481636
p71
aV1206053425970179253
p72
aV1206051241769593971
p73
aV1203643156853714318
p74
aV1202884006595030354
p75
aV1202359263018118769
p76
aV1202206891855867258
p77
aV1202206144095350116
p78
aV1201768815056677976
p79
aV1200940351844019343
p80
aV1198153873648824817
p81
aV1198015058015710635
p82
aV1198005780987014257
p83
aV1195816017043419069
p84
aV1195632903755165204
p85
aV1192355720278339091
p86
aV1185652042225970326
p87
aV1185179868973264471
p88
aV1175632458244713482
p89
aV1175513884884758108
p90
aV1169847981367127760
p91
aV1169802622351732066
p92
aV1169610825696570813
p93
aV1168902949453720999
p94
aV1168343096071057350
p95
aV1168315853152218303
p96
aV1167027359096270133
p97
aV1166288689531743965
p98
aV1165444507929964345
p99
aV1165345348300336676
p100
aV1165235868921261401
p101
aV1164724620592967593
p102
aV1164723801747386244
p103
aV1163957414863072618
p104
aV1161663678359563379
p105
aV1161658396053106644
p106
aV1161277252988071466
p107
aV1160415670141742877
p108
aV1160403554887677652
p109
aV1160377669697171263
p110
aV1159139630903750453
p111
aV1158911829915233647
p112
aV1158911047719480655
p113
aV1157393756846583632
p114
aV1156123182442770137
p115
aV1152996527696276945
p116
aV1152418100383608655
p117
aV1150866460551704361
p118
aV1150865453860024068
p119
aV1150148534664195979
p120
aV1150129783575178545
p121
aV1147352190786498293
p122
aV1147211724761886603
p123
aV1140228714275565371
p124
aV1138458073968962608
p125
aV1137711074197925405
p126
aV1134856767672987966
p127
aV1134854641739673870
p128
aV1134853414318551273
p129
aV1134851954927251646
p130
aV1134349962161206101
p131
aV1134337244209394170
p132
aV1133581654679907444
p133
aV1133336501771857077
p134
aV1132987974789131917
p135
aV1132349282147921270
p136
aV1129408696499596364
p137
aV1127966352957009624
p138
aV1127925575522479947
p139
aV1127722135110315730
p140
aV1127651714172218883
p141
aV1119310959112400995
p142
aV1119294612424930150
p143
aV1112013233345556268
p144
aV1108183158468686665
p145
aV1108178382087565984
p146
aV1108176651517735521
p147
aV1108175068528685602
p148
aV1108172589434974635
p149
aV1108170607592780119
p150
aV1108165216905506927
p151
aV1108071011109596516
p152
aV1108065763775263226
p153
aV1108063913801986488
p154
aV1106822479056760476
p155
aV1106036225851550727
p156
aV1103748011912621298
p157
aV1102528145687866560
p158
aV1099986570596347730
p159
aV1095197615036329446
p160
aV1092456089529118164
p161
aV1092455228723719616
p162
aV1091711053204057298
p163
aV1087755208111975502
p164
aV1087149164411251998
p165
aV1087146304936111307
p166
aV1084429109495884826
p167
aV1080765826444324477
p168
aV1077629998536879993
p169
aV1076973153451274202
p170
aV1075424942957817198
p171
aV1074557568348090229
p172
aV1074148587125370129
p173
aV1074123653682589318
p174
aV1062295409505365702
p175
aV1061290416627281791
p176
aV1058400792426885881
p177
aV1058399288240419545
p178
aV1058396516854051496
p179
aV1058179232260714141
p180
aV1056849040690932770
p181
aV1056812797097700595
p182
aV1055301242735314502
p183
aV1055091497308286483
p184
aV1051461340886494835
p185
aV1048657332564159751
p186
aV1044932907943619971
p187
aV1040843161667661650
p188
aV1039864963983240596
p189
aV1037354917986594042
p190
aV1037055395347590586
p191
aV1037012812943727950
p192
aV1036527262278118701
p193
aV1035878027206346510
p194
aV1035876004156435704
p195
aV1035809629983501807
p196
aV1035519215099473492
p197
aV1033426461917736523
p198
aV1033030653191941476
p199
aV1028340555816923134
p200
aV1023272600833911839
p201
aV1022812316839210984
p202
aV1022677440731311254
p203
aV1020976187114549224
p204
aV1019564239259714958
p205
aV1019150438300675542
p206
aV1019096383187338479
p207
aV1019053826408738735
p208
aV1019052913619136408
p209
aV1015911571963538558
p210
aV1013834288020877202
p211
aV1013708877679838551
p212
aV1013331957915348681
p213
aV1013232438540267437
p214
aV1013229957466845035
p215
aV1009722469647936536
p216
aV1009091775569620831
p217
aV1007953320944889323
p218
aV1007951535303847358
p219
aV1007222938493656527
p220
aV1006064468147858659
p221
aV1003934317133983419
p222
aV1000349836582088359
p223
aV1000348670557187711
p224
aV1000206025759419938
p225
aV999920083143368339
p226
aV999191406508121315
p227
aV998731566120726152
p228
aV995090739624438952
p229
aV994826794758073909
p230
aV994334917957021039
p231
aV992152826242690759
p232
aV991321444448759392
p233
aV991188776415423490
p234
aV986607668003740862
p235
aV985774571478627227
p236
aV975647173398634079
p237
aV973541065142857403
p238
aV969671130166729963
p239
aV964847185966951827
p240
aV962477458137312782
p241
aV962475540073704928
p242
aV962436640471018884
p243
aV960522026216877205
p244
aV960118343431909087
p245
aV959351127618907462
p246
aV958108206370418203
p247
aV956895949972074167
p248
aV956692849642466928
p249
aV956690721133850136
p250
aV955053850897181749
p251
aV954291352048791487
p252
aV953041472693234771
p253
aV952527040057732671
p254
aV947097847614434736
p255
aV947041680649383025
p256
aV945657957664190292
p257
aV945656582737784616
p258
aV945280172743486617
p259
aV945106374601764603
p260
aV942378327658229294
p261
aV942374547885682145
p262
aV941457170478165930
p263
aV940667436394900832
p264
aV940196651825917728
p265
aV935565497080507710
p266
aV935564398751673632
p267
aV935559524962036896
p268
aV935552901174554606
p269
aV935516233084202823
p270
aV935185374347030461
p271
aV934257520952241671
p272
aV932209167875731439
p273
aV929005002206768674
p274
aV926250709682777166
p275
aV925488119046238171
p276
aV925420433020841722
p277
aV924988661518855653
p278
aV924802142531252132
p279
aV920366948000754923
p280
aV919772275402108146
p281
aV911037846961810750
p282
aV900252903130295579
p283
aV898507066184331227
p284
aV892162654982401426
p285
aV891972686506913639
p286
aV891965678772842198
p287
aV891243774042729865
p288
aV890742972173807535
p289
aV888418569318591904
p290
aV888402998862573501
p291
aV887899608151780580
p292
aV887335535810997526
p293
aV887158307231919250
p294
aV887156912743279725
p295
aV883359041564732649
p296
aV882650424968507246
p297
aV881261629853429266
p298
aV879369179123707201
p299
aV874661894984068169
p300
aV874053569363864796
p301
aV871074062277325722
p302
aV870675277483109874
p303
aV870571888829051366
p304
aV870569191061106887
p305
aV868340846843948806
p306
aV868330559793295253
p307
aV867997190261862325
p308
aV863792803347984142
p309
aV863319959459622615
p310
aV861263567135469469
p311
aV860807228353441550
p312
aV860799876317342920
p313
aV860588740414321051
p314
aV860584134590378120
p315
aV860580054866375546
p316
aV860576577998074521
p317
aV855359746177789411
p318
aV855312970712396032
p319
aV855308388166841076
p320
aV855132647122824690
p321
aV855114262666308886
p322
aV852885925654981887
p323
aV852879121076219563
p324
aV850841022586449503
p325
aV849337870099967014
p326
aV845780538506112735
p327
aV844594360025116270
p328
aV844546185390222803
p329
aV844155945349574262
p330
aV838327254778408495
p331
aV837178778048818994
p332
aV837156035676892470
p333
aV837061445078772948
p334
aV830486162850737449
p335
aV830025158341717050
p336
aV829976727594233689
p337
aV827621715119467529
p338
aV827013723147759588
p339
aV826339796079636271
p340
aV824823809509452963
p341
aV824812827412295513
p342
aV822656170771115567
p343
aV820487066668806694
p344
aV819854174095699653
p345
aV816162935102008333
p346
aV811167307821247947
p347
aV810463713031646941
p348
aV810462152314351293
p349
aV810421194180816666
p350
aV806507247224516356
p351
aV805884605522013699
p352
aV805393160071572965
p353
aV805259666322386394
p354
aV804728559894031751
p355
aV804466913162325026
p356
aV801099710509641043
p357
aV798555475667349482
p358
aV797464587536985484
p359
aV797459735641615678
p360
aV797402373861960870
p361
aV795633296330379563
p362
aV795193115179249397
p363
aV794389595534438894
p364
aV794344792784400370
p365
aV793787625937333600
p366
aV793744567220858060
p367
aV791653152709962930
p368
aV791475330183883848
p369
aV791474733636414522
p370
aV791335152526061509
p371
aV791310933046095124
p372
aV789302560796733076
p373
aV788410267222961352
p374
aV787279934297501151
p375
aV787235424603500011
p376
aV782215803051732493
p377
aV772585157811531618
p378
aV772556867574983792
p379
aV769886493922061775
p380
aV768256997884194811
p381
aV767739286091492499
p382
aV766672467066908170
p383
aV766085580405108635
p384
aV765413556041051307
p385
aV765379243345997158
p386
aV764815729426460612
p387
aV764098187191939040
p388
aV758684444895243463
p389
aV756613340152229143
p390
aV752880831824424430
p391
aV747759306142150454
p392
aV745174443467762691
p393
aV740140224672722491
p394
aV738459749503757743
p395
aV736569848239779247
p396
aV732593282950393538
p397
aV728393093008093010
p398
aV725502410970656173
p399
aV723940758815010305
p400
aV723068013365456290
p401
aV723064299435093336
p402
aV716941686920998064
p403
aV712998530110221391
p404
aV712356987078733014
p405
aV711157020997742173
p406
aV708095838774652387
p407
aV707830956682669646
p408
aV706126518867750421
p409
aV705988044449673030
p410
aV705122839519850040
p411
aV703107891449065402
p412
aV703001691512401593
p413
aV702188234160500124
p414
aV697759655515417772
p415
aV697235822706454391
p416
aV697125950144933799
p417
aV696679591776382074
p418
aV694515394883907362
p419
aV694257332939943779
p420
aV693804717777121036
p421
aV693092365884747246
p422
aV692657270463949849
p423
aV692058010823453781
p424
aV690898973968854191
p425
aV690891841571679267
p426
aV684760147064024444
p427
aV682964644928187873
p428
aV682637139897773992
p429
aV681079734600756444
p430
aV677606890810142174
p431
aV677153135308336703
p432
aV677151507935161890
p433
aV676042105735900965
p434
aV673488310430624918
p435
aV673486197122165861
p436
aV673484476987763778
p437
aV673076211002929087
p438
aV671322405315571179
p439
aV669221657027046986
p440
aV669080566118247463
p441
aV663418431887404064
p442
aV661223283380219151
p443
aV654738700199554199
p444
aV654617774088998123
p445
aV653276298995165072
p446
aV1346685372851248176
p447
aV1345659951338560943
p448
aV1345662768300324119
p449
aV1344196979277969451
p450
aV1321988061239929543
p451
aV1339825267459421670
p452
aV1317381374881154603
p453
aV1344198482306630548
p454
aV1343466845214314897
p455
aV1337653841113897649
p456
aV1337358643347382349
p457
aV1333324724683652902
p458
aV1332762276595354175
p459
aV1332688933620034305
p460
aV1330425817037457068
p461
aV1330025465846678037
p462
aV1328987460516117035
p463
aV1327519312205920145
p464
aV1327153613315011256
p465
aV1326339150605419832
p466
aV1326338003916181807
p467
aV1325325568186973888
p468
aV1324101985364250212
p469
aV1323594250243754797
p470
aV1322074972914613145
p471
aV1321977796368854690
p472
aV1315922018973076498
p473
aV1311589912163650796
p474
aV1299978241292933181
p475
aV1306076943321732966
p476
aV1250392815877778743
p477
aV1280469582213346088
p478
aV1301513776264409168
p479
aV1272439827523464315
p480
aV1078533384903880466
p481
aV1310859534277099442
p482
aV1308680173616418465
p483
aV1339578563842295271
p484
aV1316683013929326778
p485
aV1315958584303226113
p486
aV1313477093354833185
p487
aV1313030165953225080
p488
aV1310825018142079201
p489
aV1310131168683036489
p490
aV1305837767976074733
p491
aV1305130658955306940
p492
aV1296484607537191085
p493
aV1291290692773208291
p494
aV1290598277355491816
p495
aV1290534888310659591
p496
aV1286277927062846865
p497
aV1285513951257299915
p498
aV1284747285393331403
p499
aV1284040684982458383
p500
aV1284032909002476951
p501
aV1280453681363738111
p502
aV1274746818690074968
p503
aV1270358896465463887
p504
aV1270328029055839568
p505
aV1265690048533416109
p506
aV1265591578086656152
p507
aV1265404946515544582
p508
aV1265212635730987137
p509
aV1265149167263050867
p510
aV1262285587467497066
p511
aV1261883253880834159
p512
aV1261881671118276663
p513
aV1261807885864583386
p514
aV1261671864902118413
p515
aV1261669027606458258
p516
aV1253093256759653179
p517
aV1250383366144182680
p518
aV1250373994536682177
p519
aV1250373454232317614
p520
aV1250361373185567995
p521
aV1250253602708549291
p522
aV1249600154346483004
p523
aV1249315101603294345
p524
aV1247858860462990769
p525
aV1247853744735415534
p526
aV1247799654985155375
p527
aV1247795609081507135
p528
aV1244216341420338575
p529
aV1242126100240821584
p530
aV1241533889723789024
p531
aV1240595271756835845
p532
aV1236201130671239036
p533
aV1236180976251989404
p534
aV1234029123129076926
p535
aV1234028164143410341
p536
aV1231149528507772336
p537
aV1229907521071357334
p538
aV1229903641477825259
p539
aV1229884343935593915
p540
aV1229882565567475060
p541
aV1229712826237854495
p542
aV1229351809850044402
p543
aV1229319582833885727
p544
aV1229093722944094551
p545
aV1226344735926938804
p546
aV1226069256565190366
p547
aV1225499195932700480
p548
aV1225494778508504675
p549
aV1219589926406352261
p550
aV1218832081640627302
p551
aV1218223190472311050
p552
aV1217677434033827012
p553
aV1217555930264661519
p554
aV1215434527017037720
p555
aV1210412214994476429
p556
aV1210268647226786119
p557
aV1209852571033411349
p558
aV1208706103940923484
p559
aV1206618156581810008
p560
aV1204466590569906900
p561
aV1204419585873944246
p562
aV1203670952254663861
p563
aV1195277992389951598
p564
aV1195184003596446899
p565
aV1194255279086661612
p566
aV1192465502033177636
p567
aV1189173483160497524
p568
aV1188503436729544148
p569
aV1184135564798903288
p570
aV1179023492840451341
p571
aV1174917303072485286
p572
aV1174163455305761386
p573
aV1173950567590423554
p574
aV1170525834270239889
p575
aV1163824642618060670
p576
aV1163821704550051626
p577
aV1163773664141036042
p578
aV1150719953011762303
p579
aV1149547410361970489
p580
aV1147349918488751776
p581
aV1138540016475598553
p582
aV1135762917759151623
p583
aV1134458293886414113
p584
aV1134400487300820819
p585
aV1134393556506822992
p586
aV1134383533697559945
p587
aV1134366873007475357
p588
aV1134365431114812009
p589
aV1133582925042314407
p590
aV1133306836124877483
p591
aV1126857553093118385
p592
aV1124927203773541913
p593
aV1119152525461187636
p594
aV1118997175160303087
p595
aV1118951231517650835
p596
aV1118418081087515745
p597
aV1118413027437735917
p598
aV1118263703848142900
p599
aV1118237651650506062
p600
aV1118234961272925408
p601
aV1118233874721458213
p602
aV1115208602728558260
p603
aV1114112355938388205
p604
aV1113046190118170281
p605
aV1112413684016639824
p606
aV1112318031454301419
p607
aV1110294449794608771
p608
aV1109062047340457296
p609
aV1109059902725713174
p610
aV1109056609978730840
p611
aV1109036865427107517
p612
aV1108122882293418432
p613
aV1108121332967852417
p614
aV1108114329696759740
p615
aV1108098186625969464
p616
aV1108089212291805172
p617
aV1108087366454112172
p618
aV1108082215714582258
p619
aV1108079377565795304
p620
aV1108078436571180669
p621
aV1099243675882909209
p622
aV1094311958738923234
p623
aV1094222378681528052
p624
aV1088659634163051858
p625
aV1088656660250520828
p626
aV1088653099135429768
p627
aV1088651082119801933
p628
aV1086870670157684033
p629
aV1083572132540607885
p630
aV1083424934783904964
p631
aV1083405909739728304
p632
aV1082634840317652062
p633
aV1082580455898246442
p634
aV1078422206991068545
p635
aV1076451762951974712
p636
aV1065508884172009362
p637
aV1063038802401455577
p638
aV1063032664641531185
p639
aV1062976137729699628
p640
aV1059751534299475761
p641
aV1059749808813141761
p642
aV1058327387014982687
p643
aV1058180607237451469
p644
aV1058006599724461879
p645
aV1056147384978403185
p646
aV1055870883095670015
p647
aV1052136089468674448
p648
aV1050655815517105812
p649
aV1050110628676005064
p650
aV1047322443122240760
p651
aV1047211637185474220
p652
aV1044510621952405329
p653
aV1042053523909930884
p654
aV1041907722512526431
p655
aV1039041672976559788
p656
aV1037807244799405996
p657
aV1037682727204712284
p658
aV1036995627648951058
p659
aV1031846465873780977
p660
aV1029239010361896777
p661
aV1029112734137478400
p662
aV1029045740340014148
p663
aV1029029887137574501
p664
aV1028474666112020317
p665
aV1028334151299264313
p666
aV1027789327928159962
p667
aV1027772811765640422
p668
aV1027771478983601349
p669
aV1027688112284265911
p670
aV1023276609464462524
p671
aV1019627736028179587
p672
aV1016919341188169756
p673
aV1016588109392823127
p674
aV1016571107300896236
p675
aV1016567537319046547
p676
aV1014426688322675259
p677
aV1011685673655627218
p678
aV1010809575506846171
p679
aV1010444358934621588
p680
aV1007217569013722780
p681
aV1006021247827723864
p682
aV1005770132747218557
p683
aV1003536579934318239
p684
aV1002798465695640738
p685
aV1001399067120004680
p686
aV1001311995306733083
p687
aV999917767594897126
p688
aV999640593055752261
p689
aV998632623923818268
p690
aV998445641132590041
p691
aV996376014191356959
p692
aV995634465002253801
p693
aV994643994988167607
p694
aV994599408981385857
p695
aV987094424905237390
p696
aV957246618860921102
p697
aV953654097477550549
p698
aV794283694693593289
p699
a.